target datalayout = "e-m:e-p270:32:32-p271:32:32-p272:64:64-i64:64-i128:128-f80:128-n8:16:32:64-S128"
target triple = "x86_64-pc-linux-gnu"

%struct._lv_scale_t = type <{ %struct._lv_obj_t, %struct.lv_ll_t, ptr, i32, i32, i32, i64, i32, i32, i32, i32, i32 }>
%struct._lv_obj_t = type { ptr, ptr, ptr, ptr, ptr, %struct.lv_area_t, i32, i16, i16 }
%struct.lv_area_t = type { i32, i32, i32, i32 }
%struct.lv_ll_t = type { i32, ptr, ptr }

; Function Attrs: nounwind uwtable
define void @lv_scale_set_image_needle_value(ptr noundef %0, ptr noundef %1, i32 noundef %2) #0 {
  %4 = alloca ptr, align 8
  %5 = alloca ptr, align 8
  %6 = alloca i32, align 4
  %7 = alloca i32, align 4
  %8 = alloca ptr, align 8
  %9 = alloca i32, align 4
  store ptr %0, ptr %4, align 8, !tbaa !3
  store ptr %1, ptr %5, align 8, !tbaa !3
  store i32 %2, ptr %6, align 4, !tbaa !25
  call void @llvm.lifetime.start.p0(i64 4, ptr %7) #7
  br label %10

10:                                               ; preds = %3
  br label %11

11:                                               ; preds = %10
  br label %12

12:                                               ; preds = %11
  call void @llvm.lifetime.start.p0(i64 8, ptr %8) #7
  %13 = load ptr, ptr %4, align 8, !tbaa !3
  store ptr %13, ptr %8, align 8, !tbaa !3
  %14 = load ptr, ptr %8, align 8, !tbaa !3
  %15 = getelementptr inbounds nuw %struct._lv_scale_t, ptr %14, i32 0, i32 3
  %16 = load i32, ptr %15, align 8, !tbaa !7
  %17 = icmp ne i32 %16, 8
  br i1 %17, label %18, label %24

18:                                               ; preds = %12
  %19 = load ptr, ptr %8, align 8, !tbaa !3
  %20 = getelementptr inbounds nuw %struct._lv_scale_t, ptr %19, i32 0, i32 3
  %21 = load i32, ptr %20, align 8, !tbaa !7
  %22 = icmp ne i32 %21, 16
  br i1 %22, label %23, label %24

23:                                               ; preds = %18
  store i32 1, ptr %9, align 4
  br label %68

24:                                               ; preds = %18, %12
  %25 = load i32, ptr %6, align 4, !tbaa !25
  %26 = load ptr, ptr %8, align 8, !tbaa !3
  %27 = getelementptr inbounds nuw %struct._lv_scale_t, ptr %26, i32 0, i32 4
  %28 = load i32, ptr %27, align 4, !tbaa !16
  %29 = icmp slt i32 %25, %28
  br i1 %29, label %30, label %31

30:                                               ; preds = %24
  store i32 0, ptr %7, align 4, !tbaa !25
  br label %60

31:                                               ; preds = %24
  %32 = load i32, ptr %6, align 4, !tbaa !25
  %33 = load ptr, ptr %8, align 8, !tbaa !3
  %34 = getelementptr inbounds nuw %struct._lv_scale_t, ptr %33, i32 0, i32 5
  %35 = load i32, ptr %34, align 8, !tbaa !17
  %36 = icmp sgt i32 %32, %35
  br i1 %36, label %37, label %41

37:                                               ; preds = %31
  %38 = load ptr, ptr %8, align 8, !tbaa !3
  %39 = getelementptr inbounds nuw %struct._lv_scale_t, ptr %38, i32 0, i32 7
  %40 = load i32, ptr %39, align 4, !tbaa !14
  store i32 %40, ptr %7, align 4, !tbaa !25
  br label %59

41:                                               ; preds = %31
  %42 = load ptr, ptr %8, align 8, !tbaa !3
  %43 = getelementptr inbounds nuw %struct._lv_scale_t, ptr %42, i32 0, i32 7
  %44 = load i32, ptr %43, align 4, !tbaa !14
  %45 = load i32, ptr %6, align 4, !tbaa !25
  %46 = load ptr, ptr %8, align 8, !tbaa !3
  %47 = getelementptr inbounds nuw %struct._lv_scale_t, ptr %46, i32 0, i32 4
  %48 = load i32, ptr %47, align 4, !tbaa !16
  %49 = sub nsw i32 %45, %48
  %50 = mul i32 %44, %49
  %51 = load ptr, ptr %8, align 8, !tbaa !3
  %52 = getelementptr inbounds nuw %struct._lv_scale_t, ptr %51, i32 0, i32 5
  %53 = load i32, ptr %52, align 8, !tbaa !17
  %54 = load ptr, ptr %8, align 8, !tbaa !3
  %55 = getelementptr inbounds nuw %struct._lv_scale_t, ptr %54, i32 0, i32 4
  %56 = load i32, ptr %55, align 4, !tbaa !16
  %57 = sub nsw i32 %53, %56
  %58 = udiv i32 %50, %57
  store i32 %58, ptr %7, align 4, !tbaa !25
  br label %59

59:                                               ; preds = %41, %37
  br label %60

60:                                               ; preds = %59, %30
  %61 = load ptr, ptr %5, align 8, !tbaa !3
  %62 = load ptr, ptr %8, align 8, !tbaa !3
  %63 = getelementptr inbounds nuw %struct._lv_scale_t, ptr %62, i32 0, i32 8
  %64 = load i32, ptr %63, align 8, !tbaa !15
  %65 = load i32, ptr %7, align 4, !tbaa !25
  %66 = add nsw i32 %64, %65
  %67 = mul nsw i32 %66, 10
  call void @lv_image_set_rotation(ptr noundef %61, i32 noundef %67)
  store i32 0, ptr %9, align 4
  br label %68

68:                                               ; preds = %60, %23
  call void @llvm.lifetime.end.p0(i64 8, ptr %8) #7
  call void @llvm.lifetime.end.p0(i64 4, ptr %7) #7
  %69 = load i32, ptr %9, align 4
  switch i32 %69, label %71 [
    i32 0, label %70
    i32 1, label %70
  ]

70:                                               ; preds = %68, %68
  ret void

71:                                               ; preds = %68
  unreachable
}