; Function Attrs: nounwind uwtable
define void @lv_scale_set_image_needle_value(ptr nocapture noundef readonly %0, ptr noundef %1, i32 noundef %2) local_unnamed_addr #0 {
  %4 = getelementptr inbounds nuw i8, ptr %0, i64 96
  %5 = load i32, ptr %4, align 8, !tbaa !3
  switch i32 %5, label %26 [
    i32 8, label %6
    i32 16, label %6
  ]

6:                                                ; preds = %3, %3
  %7 = getelementptr inbounds nuw i8, ptr %0, i64 100
  %8 = load i32, ptr %7, align 4, !tbaa !15
  %9 = icmp slt i32 %2, %8
  br i1 %9, label %21, label %10

10:                                               ; preds = %6
  %11 = getelementptr inbounds nuw i8, ptr %0, i64 104
  %12 = load i32, ptr %11, align 8, !tbaa !16
  %13 = icmp sgt i32 %2, %12
  %14 = getelementptr inbounds nuw i8, ptr %0, i64 116
  %15 = load i32, ptr %14, align 4, !tbaa !13
  br i1 %13, label %21, label %16

16:                                               ; preds = %10
  %17 = sub nsw i32 %2, %8
  %18 = mul i32 %15, %17
  %19 = sub nsw i32 %12, %8
  %20 = udiv i32 %18, %19
  br label %21

21:                                               ; preds = %10, %6, %16
  %.0 = phi i32 [ %20, %16 ], [ 0, %6 ], [ %15, %10 ]
  %22 = getelementptr inbounds nuw i8, ptr %0, i64 120
  %23 = load i32, ptr %22, align 8, !tbaa !14
  %24 = add nsw i32 %23, %.0
  %25 = mul nsw i32 %24, 10
  tail call void @lv_image_set_rotation(ptr noundef %1, i32 noundef %25) #9
  br label %26

26:                                               ; preds = %3, %21
  ret void
}